target datalayout = "e-m:e-p270:32:32-p271:32:32-p272:64:64-i64:64-i128:128-f80:128-n8:16:32:64-S128"
target triple = "x86_64-pc-linux-gnu"

%struct.ossl_param_st = type { ptr, i32, ptr, i64, i64 }

@.str = private unnamed_addr constant [25 x i8] c"../openssl/test/ectest.c\00", align 1
@.str.27 = private unnamed_addr constant [2 x i8] c"0\00", align 1
@.str.565 = private unnamed_addr constant [52 x i8] c"pctx = EVP_PKEY_CTX_new_from_name(NULL, \22EC\22, NULL)\00", align 1
@.str.566 = private unnamed_addr constant [3 x i8] c"EC\00", align 1
@.str.567 = private unnamed_addr constant [29 x i8] c"EVP_PKEY_fromdata_init(pctx)\00", align 1
@.str.570 = private unnamed_addr constant [6 x i8] c"group\00", align 1
@.str.691 = private unnamed_addr constant [30 x i8] c"gen_key = EVP_EC_gen(\22P-256\22)\00", align 1
@.str.692 = private unnamed_addr constant [6 x i8] c"P-256\00", align 1
@.str.693 = private unnamed_addr constant [1 x i8] zeroinitializer, align 1
@.str.694 = private unnamed_addr constant [44 x i8] c"pklen = i2d_PublicKey(gen_key, &pubkey_enc)\00", align 1
@.str.695 = private unnamed_addr constant [85 x i8] c"EVP_PKEY_fromdata(pctx, &decoded_key, OSSL_KEYMGMT_SELECT_DOMAIN_PARAMETERS, params)\00", align 1
@.str.696 = private unnamed_addr constant [12 x i8] c"decoded_key\00", align 1
@.str.697 = private unnamed_addr constant [71 x i8] c"decoded_key = d2i_PublicKey(EVP_PKEY_EC, &decoded_key, &pk_enc, pklen)\00", align 1
@.str.698 = private unnamed_addr constant [34 x i8] c"EVP_PKEY_eq(gen_key, decoded_key)\00", align 1

; Function Attrs: nounwind uwtable
define internal i32 @ec_d2i_publickey_test() #0 {
  %1 = alloca [1000 x i8], align 16
  %2 = alloca ptr, align 8
  %3 = alloca ptr, align 8
  %4 = alloca ptr, align 8
  %5 = alloca ptr, align 8
  %6 = alloca ptr, align 8
  %7 = alloca i32, align 4
  %8 = alloca i32, align 4
  %9 = alloca [2 x %struct.ossl_param_st], align 16
  %10 = alloca %struct.ossl_param_st, align 8
  %11 = alloca %struct.ossl_param_st, align 8
  call void @llvm.lifetime.start.p0(i64 1000, ptr %1) #7
  call void @llvm.lifetime.start.p0(i64 8, ptr %2) #7
  %12 = getelementptr inbounds [1000 x i8], ptr %1, i64 0, i64 0
  store ptr %12, ptr %2, align 8, !tbaa !14
  call void @llvm.lifetime.start.p0(i64 8, ptr %3) #7
  %13 = load ptr, ptr %2, align 8, !tbaa !14
  store ptr %13, ptr %3, align 8, !tbaa !14
  call void @llvm.lifetime.start.p0(i64 8, ptr %4) #7
  store ptr null, ptr %4, align 8, !tbaa !68
  call void @llvm.lifetime.start.p0(i64 8, ptr %5) #7
  store ptr null, ptr %5, align 8, !tbaa !68
  call void @llvm.lifetime.start.p0(i64 8, ptr %6) #7
  store ptr null, ptr %6, align 8, !tbaa !70
  call void @llvm.lifetime.start.p0(i64 4, ptr %7) #7
  call void @llvm.lifetime.start.p0(i64 4, ptr %8) #7
  store i32 0, ptr %8, align 4, !tbaa !16
  call void @llvm.lifetime.start.p0(i64 80, ptr %9) #7
  %14 = call ptr @strstr(ptr noundef @.str.692, ptr noundef @.str.693) #8
  %15 = call ptr (ptr, ptr, ptr, ...) @EVP_PKEY_Q_keygen(ptr noundef null, ptr noundef null, ptr noundef @.str.566, ptr noundef %14)
  store ptr %15, ptr %4, align 8, !tbaa !68
  %16 = call i32 @test_ptr(ptr noundef @.str, i32 noundef 3091, ptr noundef @.str.691, ptr noundef %15)
  %17 = icmp ne i32 %16, 0
  br i1 %17, label %19, label %18

18:                                               ; preds = %0
  br label %67

19:                                               ; preds = %0
  %20 = load ptr, ptr %4, align 8, !tbaa !68
  %21 = call i32 @i2d_PublicKey(ptr noundef %20, ptr noundef %2)
  store i32 %21, ptr %7, align 4, !tbaa !16
  %22 = call i32 @test_int_gt(ptr noundef @.str, i32 noundef 3094, ptr noundef @.str.694, ptr noundef @.str.27, i32 noundef %21, i32 noundef 0)
  %23 = icmp ne i32 %22, 0
  br i1 %23, label %25, label %24

24:                                               ; preds = %19
  br label %67

25:                                               ; preds = %19
  %26 = getelementptr inbounds [2 x %struct.ossl_param_st], ptr %9, i64 0, i64 0
  call void @llvm.lifetime.start.p0(i64 40, ptr %10) #7
  call void @OSSL_PARAM_construct_utf8_string(ptr dead_on_unwind writable sret(%struct.ossl_param_st) align 8 %10, ptr noundef @.str.570, ptr noundef @.str.692, i64 noundef 0)
  call void @llvm.memcpy.p0.p0.i64(ptr align 16 %26, ptr align 8 %10, i64 40, i1 false), !tbaa.struct !72
  call void @llvm.lifetime.end.p0(i64 40, ptr %10) #7
  %27 = getelementptr inbounds [2 x %struct.ossl_param_st], ptr %9, i64 0, i64 1
  call void @llvm.lifetime.start.p0(i64 40, ptr %11) #7
  call void @OSSL_PARAM_construct_end(ptr dead_on_unwind writable sret(%struct.ossl_param_st) align 8 %11)
  call void @llvm.memcpy.p0.p0.i64(ptr align 8 %27, ptr align 8 %11, i64 40, i1 false), !tbaa.struct !72
  call void @llvm.lifetime.end.p0(i64 40, ptr %11) #7
  %28 = call ptr @EVP_PKEY_CTX_new_from_name(ptr noundef null, ptr noundef @.str.566, ptr noundef null)
  store ptr %28, ptr %6, align 8, !tbaa !70
  %29 = call i32 @test_ptr(ptr noundef @.str, i32 noundef 3101, ptr noundef @.str.565, ptr noundef %28)
  %30 = icmp ne i32 %29, 0
  br i1 %30, label %31, label %56

31:                                               ; preds = %25
  %32 = load ptr, ptr %6, align 8, !tbaa !70
  %33 = call i32 @EVP_PKEY_fromdata_init(ptr noundef %32)
  %34 = icmp ne i32 %33, 0
  %35 = zext i1 %34 to i32
  %36 = call i32 @test_true(ptr noundef @.str, i32 noundef 3102, ptr noundef @.str.567, i32 noundef %35)
  %37 = icmp ne i32 %36, 0
  br i1 %37, label %38, label %56

38:                                               ; preds = %31
  %39 = load ptr, ptr %6, align 8, !tbaa !70
  %40 = getelementptr inbounds [2 x %struct.ossl_param_st], ptr %9, i64 0, i64 0
  %41 = call i32 @EVP_PKEY_fromdata(ptr noundef %39, ptr noundef %5, i32 noundef 4, ptr noundef %40)
  %42 = icmp ne i32 %41, 0
  %43 = zext i1 %42 to i32
  %44 = call i32 @test_true(ptr noundef @.str, i32 noundef 3105, ptr noundef @.str.695, i32 noundef %43)
  %45 = icmp ne i32 %44, 0
  br i1 %45, label %46, label %56

46:                                               ; preds = %38
  %47 = load ptr, ptr %5, align 8, !tbaa !68
  %48 = call i32 @test_ptr(ptr noundef @.str, i32 noundef 3106, ptr noundef @.str.696, ptr noundef %47)
  %49 = icmp ne i32 %48, 0
  br i1 %49, label %50, label %56

50:                                               ; preds = %46
  %51 = load i32, ptr %7, align 4, !tbaa !16
  %52 = sext i32 %51 to i64
  %53 = call ptr @d2i_PublicKey(i32 noundef 408, ptr noundef %5, ptr noundef %3, i64 noundef %52)
  store ptr %53, ptr %5, align 8, !tbaa !68
  %54 = call i32 @test_ptr(ptr noundef @.str, i32 noundef 3108, ptr noundef @.str.697, ptr noundef %53)
  %55 = icmp ne i32 %54, 0
  br i1 %55, label %57, label %56

56:                                               ; preds = %50, %46, %38, %31, %25
  br label %67

57:                                               ; preds = %50
  %58 = load ptr, ptr %4, align 8, !tbaa !68
  %59 = load ptr, ptr %5, align 8, !tbaa !68
  %60 = call i32 @EVP_PKEY_eq(ptr noundef %58, ptr noundef %59)
  %61 = icmp ne i32 %60, 0
  %62 = zext i1 %61 to i32
  %63 = call i32 @test_true(ptr noundef @.str, i32 noundef 3111, ptr noundef @.str.698, i32 noundef %62)
  %64 = icmp ne i32 %63, 0
  br i1 %64, label %66, label %65

65:                                               ; preds = %57
  br label %67

66:                                               ; preds = %57
  store i32 1, ptr %8, align 4, !tbaa !16
  br label %67

67:                                               ; preds = %66, %65, %56, %24, %18
  %68 = load ptr, ptr %6, align 8, !tbaa !70
  call void @EVP_PKEY_CTX_free(ptr noundef %68)
  %69 = load ptr, ptr %4, align 8, !tbaa !68
  call void @EVP_PKEY_free(ptr noundef %69)
  %70 = load ptr, ptr %5, align 8, !tbaa !68
  call void @EVP_PKEY_free(ptr noundef %70)
  %71 = load i32, ptr %8, align 4, !tbaa !16
  call void @llvm.lifetime.end.p0(i64 80, ptr %9) #7
  call void @llvm.lifetime.end.p0(i64 4, ptr %8) #7
  call void @llvm.lifetime.end.p0(i64 4, ptr %7) #7
  call void @llvm.lifetime.end.p0(i64 8, ptr %6) #7
  call void @llvm.lifetime.end.p0(i64 8, ptr %5) #7
  call void @llvm.lifetime.end.p0(i64 8, ptr %4) #7
  call void @llvm.lifetime.end.p0(i64 8, ptr %3) #7
  call void @llvm.lifetime.end.p0(i64 8, ptr %2) #7
  call void @llvm.lifetime.end.p0(i64 1000, ptr %1) #7
  ret i32 %71
}