; Function Attrs: nounwind uwtable
define internal range(i32 0, 2) i32 @ec_d2i_publickey_test() #0 {
  %1 = alloca [1000 x i8], align 16
  %2 = alloca ptr, align 8
  %3 = alloca ptr, align 8
  %4 = alloca ptr, align 8
  %5 = alloca [2 x %struct.ossl_param_st], align 16
  %6 = alloca %struct.ossl_param_st, align 8
  call void @llvm.lifetime.start.p0(i64 1000, ptr nonnull %1) #7
  call void @llvm.lifetime.start.p0(i64 8, ptr nonnull %2) #7
  store ptr %1, ptr %2, align 8, !tbaa !10
  call void @llvm.lifetime.start.p0(i64 8, ptr nonnull %3) #7
  store ptr %1, ptr %3, align 8, !tbaa !10
  call void @llvm.lifetime.start.p0(i64 8, ptr nonnull %4) #7
  store ptr null, ptr %4, align 8, !tbaa !51
  call void @llvm.lifetime.start.p0(i64 80, ptr nonnull %5) #7
  %7 = call ptr (ptr, ptr, ptr, ...) @EVP_PKEY_Q_keygen(ptr noundef null, ptr noundef null, ptr noundef nonnull @.str.566, ptr noundef nonnull @.str.692) #7
  %8 = call i32 @test_ptr(ptr noundef nonnull @.str, i32 noundef 3091, ptr noundef nonnull @.str.691, ptr noundef %7) #7
  %.not = icmp eq i32 %8, 0
  br i1 %.not, label %39, label %9

9:                                                ; preds = %0
  %10 = call i32 @i2d_PublicKey(ptr noundef %7, ptr noundef nonnull %2) #7
  %11 = call i32 @test_int_gt(ptr noundef nonnull @.str, i32 noundef 3094, ptr noundef nonnull @.str.694, ptr noundef nonnull @.str.27, i32 noundef %10, i32 noundef 0) #7
  %.not8 = icmp eq i32 %11, 0
  br i1 %.not8, label %39, label %12

12:                                               ; preds = %9
  call void @OSSL_PARAM_construct_utf8_string(ptr dead_on_unwind nonnull writable sret(%struct.ossl_param_st) align 8 %5, ptr noundef nonnull @.str.570, ptr noundef nonnull @.str.692, i64 noundef 0) #7
  %13 = getelementptr inbounds nuw i8, ptr %5, i64 40
  call void @llvm.lifetime.start.p0(i64 40, ptr nonnull %6) #7
  call void @OSSL_PARAM_construct_end(ptr dead_on_unwind nonnull writable sret(%struct.ossl_param_st) align 8 %6) #7
  call void @llvm.memcpy.p0.p0.i64(ptr noundef nonnull align 8 dereferenceable(40) %13, ptr noundef nonnull align 8 dereferenceable(40) %6, i64 40, i1 false), !tbaa.struct !53
  call void @llvm.lifetime.end.p0(i64 40, ptr nonnull %6) #7
  %14 = call ptr @EVP_PKEY_CTX_new_from_name(ptr noundef null, ptr noundef nonnull @.str.566, ptr noundef null) #7
  %15 = call i32 @test_ptr(ptr noundef nonnull @.str, i32 noundef 3101, ptr noundef nonnull @.str.565, ptr noundef %14) #7
  %.not9 = icmp eq i32 %15, 0
  br i1 %.not9, label %39, label %16

16:                                               ; preds = %12
  %17 = call i32 @EVP_PKEY_fromdata_init(ptr noundef %14) #7
  %18 = icmp ne i32 %17, 0
  %19 = zext i1 %18 to i32
  %20 = call i32 @test_true(ptr noundef nonnull @.str, i32 noundef 3102, ptr noundef nonnull @.str.567, i32 noundef %19) #7
  %.not10 = icmp eq i32 %20, 0
  br i1 %.not10, label %39, label %21

21:                                               ; preds = %16
  %22 = call i32 @EVP_PKEY_fromdata(ptr noundef %14, ptr noundef nonnull %4, i32 noundef 4, ptr noundef nonnull %5) #7
  %23 = icmp ne i32 %22, 0
  %24 = zext i1 %23 to i32
  %25 = call i32 @test_true(ptr noundef nonnull @.str, i32 noundef 3105, ptr noundef nonnull @.str.695, i32 noundef %24) #7
  %.not11 = icmp eq i32 %25, 0
  br i1 %.not11, label %39, label %26

26:                                               ; preds = %21
  %27 = load ptr, ptr %4, align 8, !tbaa !51
  %28 = call i32 @test_ptr(ptr noundef nonnull @.str, i32 noundef 3106, ptr noundef nonnull @.str.696, ptr noundef %27) #7
  %.not12 = icmp eq i32 %28, 0
  br i1 %.not12, label %39, label %29

29:                                               ; preds = %26
  %30 = sext i32 %10 to i64
  %31 = call ptr @d2i_PublicKey(i32 noundef 408, ptr noundef nonnull %4, ptr noundef nonnull %3, i64 noundef %30) #7
  store ptr %31, ptr %4, align 8, !tbaa !51
  %32 = call i32 @test_ptr(ptr noundef nonnull @.str, i32 noundef 3108, ptr noundef nonnull @.str.697, ptr noundef %31) #7
  %.not13 = icmp eq i32 %32, 0
  br i1 %.not13, label %39, label %33

33:                                               ; preds = %29
  %34 = load ptr, ptr %4, align 8, !tbaa !51
  %35 = call i32 @EVP_PKEY_eq(ptr noundef %7, ptr noundef %34) #7
  %36 = icmp ne i32 %35, 0
  %37 = zext i1 %36 to i32
  %38 = call i32 @test_true(ptr noundef nonnull @.str, i32 noundef 3111, ptr noundef nonnull @.str.698, i32 noundef %37) #7
  %.not14 = icmp ne i32 %38, 0
  %spec.select = zext i1 %.not14 to i32
  br label %39

39:                                               ; preds = %33, %12, %16, %21, %26, %29, %9, %0
  %.07 = phi ptr [ %14, %29 ], [ %14, %26 ], [ %14, %21 ], [ %14, %16 ], [ %14, %12 ], [ null, %9 ], [ null, %0 ], [ %14, %33 ]
  %.0 = phi i32 [ 0, %29 ], [ 0, %26 ], [ 0, %21 ], [ 0, %16 ], [ 0, %12 ], [ 0, %9 ], [ 0, %0 ], [ %spec.select, %33 ]
  call void @EVP_PKEY_CTX_free(ptr noundef %.07) #7
  call void @EVP_PKEY_free(ptr noundef %7) #7
  %40 = load ptr, ptr %4, align 8, !tbaa !51
  call void @EVP_PKEY_free(ptr noundef %40) #7
  call void @llvm.lifetime.end.p0(i64 80, ptr nonnull %5) #7
  call void @llvm.lifetime.end.p0(i64 8, ptr nonnull %4) #7
  call void @llvm.lifetime.end.p0(i64 8, ptr nonnull %3) #7
  call void @llvm.lifetime.end.p0(i64 8, ptr nonnull %2) #7
  call void @llvm.lifetime.end.p0(i64 1000, ptr nonnull %1) #7
  ret i32 %.0
}